target datalayout = "e-m:e-p270:32:32-p271:32:32-p272:64:64-i64:64-i128:128-f80:128-n8:16:32:64-S128"
target triple = "x86_64-pc-linux-gnu"

%struct.lua_State = type { ptr, i8, i8, i8, i8, i16, %union.StkIdRel, ptr, ptr, %union.StkIdRel, %union.StkIdRel, ptr, %union.StkIdRel, ptr, ptr, ptr, %struct.CallInfo, ptr, i64, i32, i32, i32, i32, i32, %struct.anon.2 }
%union.StkIdRel = type { ptr }
%struct.CallInfo = type { %union.StkIdRel, %union.StkIdRel, ptr, ptr, %union.anon, %union.anon.1, i32 }
%union.anon = type { %struct.anon.0 }
%struct.anon.0 = type { ptr, i64, i64 }
%union.anon.1 = type { i32 }
%struct.anon.2 = type { i32, i32 }

; Function Attrs: nounwind uwtable
define hidden i64 @luaE_threadsize(ptr noundef %0) #0 {
  %2 = alloca ptr, align 8
  %3 = alloca i64, align 8
  store ptr %0, ptr %2, align 8, !tbaa !22
  call void @llvm.lifetime.start.p0(i64 8, ptr %3) #6
  %4 = load ptr, ptr %2, align 8, !tbaa !22
  %5 = getelementptr inbounds nuw %struct.lua_State, ptr %4, i32 0, i32 5
  %6 = load i16, ptr %5, align 4, !tbaa !35
  %7 = zext i16 %6 to i32
  %8 = zext i32 %7 to i64
  %9 = mul i64 %8, 64
  %10 = add i64 216, %9
  store i64 %10, ptr %3, align 8, !tbaa !9
  %11 = load ptr, ptr %2, align 8, !tbaa !22
  %12 = getelementptr inbounds nuw %struct.lua_State, ptr %11, i32 0, i32 10
  %13 = load ptr, ptr %12, align 8, !tbaa !34
  %14 = icmp ne ptr %13, null
  br i1 %14, label %15, label %32

15:                                               ; preds = %1
  %16 = load ptr, ptr %2, align 8, !tbaa !22
  %17 = getelementptr inbounds nuw %struct.lua_State, ptr %16, i32 0, i32 9
  %18 = load ptr, ptr %17, align 8, !tbaa !34
  %19 = load ptr, ptr %2, align 8, !tbaa !22
  %20 = getelementptr inbounds nuw %struct.lua_State, ptr %19, i32 0, i32 10
  %21 = load ptr, ptr %20, align 8, !tbaa !34
  %22 = ptrtoint ptr %18 to i64
  %23 = ptrtoint ptr %21 to i64
  %24 = sub i64 %22, %23
  %25 = sdiv exact i64 %24, 16
  %26 = trunc i64 %25 to i32
  %27 = add nsw i32 %26, 5
  %28 = zext i32 %27 to i64
  %29 = mul i64 %28, 16
  %30 = load i64, ptr %3, align 8, !tbaa !9
  %31 = add i64 %30, %29
  store i64 %31, ptr %3, align 8, !tbaa !9
  br label %32

32:                                               ; preds = %15, %1
  %33 = load i64, ptr %3, align 8, !tbaa !9
  call void @llvm.lifetime.end.p0(i64 8, ptr %3) #6
  ret i64 %33
}