; Function Attrs: mustprogress nofree norecurse nosync nounwind willreturn memory(argmem: read) uwtable
define hidden range(i64 216, 68723671177) i64 @luaE_threadsize(ptr noundef readonly captures(none) %0) local_unnamed_addr #5 {
  %2 = getelementptr inbounds nuw i8, ptr %0, i64 12
  %3 = load i16, ptr %2, align 4, !tbaa !31
  %4 = zext i16 %3 to i64
  %5 = shl nuw nsw i64 %4, 6
  %6 = add nuw nsw i64 %5, 216
  %7 = getelementptr inbounds nuw i8, ptr %0, i64 48
  %8 = load ptr, ptr %7, align 8, !tbaa !30
  %.not = icmp eq ptr %8, null
  br i1 %.not, label %17, label %9

9:                                                ; preds = %1
  %10 = getelementptr inbounds nuw i8, ptr %0, i64 40
  %11 = load ptr, ptr %10, align 8, !tbaa !30
  %12 = ptrtoint ptr %11 to i64
  %13 = ptrtoint ptr %8 to i64
  %reass.sub = sub i64 %12, %13
  %14 = add i64 %reass.sub, 80
  %15 = and i64 %14, 68719476720
  %16 = add nuw nsw i64 %15, %6
  br label %17

17:                                               ; preds = %9, %1
  %.0 = phi i64 [ %16, %9 ], [ %6, %1 ]
  ret i64 %.0
}